(dp0
cnumpy.core.multiarray
scalar
p1
(cnumpy
dtype
p2
(S'i8'
p3
I0
I1
tp4
Rp5
(I3
S'<'
p6
NNNI-1
I-1
I0
tp7
bS'\x00\x00\x00\x00\x00\x00\x00\x00'
p8
tp9
Rp10
(lp11
I0
aI5
aI27
aI53
aI64
aI83
aI95
aI101
aI102
aI106
aI123
aI127
aI132
aI151
aI156
aI158
aI164
aI167
aI181
aI186
aI220
aI224
aI284
aI286
aI294
aI306
aI320
aI373
aI374
aI421
aI436
aI478
aI533
aI545
aI585
aI600
aI646
aI658
aI678
aI682
aI705
aI734
aI750
aI754
aI811
aI814
aI817
aI828
aI882
aI888
aI909
aI921
aI980
aI993
aI998
aI1000
aI1008
aI1010
aI1030
aI1051
aI1063
aI1065
aI1099
aI1107
aI1114
aI1134
aI1144
aI1164
aI1176
aI1204
aI1208
aI1210
aI1226
aI1233
aI1275
aI1308
aI1336
aI1347
aI1370
aI1378
aI1380
aI1406
aI1417
aI1427
aI1428
aI1439
aI1441
aI1451
aI1473
aI1490
aI1496
aI1506
aI1522
aI1568
aI1625
aI1649
aI1705
aI1713
aI1720
aI1738
aI1760
aI1771
aI1777
aI1798
aI1805
aI1831
aI1877
aI1915
aI1928
aI1929
aI1937
aI1958
aI1968
aI1971
aI1994
aI2037
aI2040
aI2041
aI2054
aI2060
aI2072
aI2074
aI2117
aI2122
aI2138
aI2151
aI2170
aI2192
aI2214
aI2243
aI2253
aI2256
aI2299
aI2325
aI2331
aI2360
aI2369
aI2377
aI2382
aI2400
aI2402
aI2411
aI2416
aI2445
aI2490
aI2496
aI2498
aI2504
aI2508
aI2535
aI2551
aI2557
aI2583
aI2589
aI2603
aI2646
aI2693
aI2706
aI2720
aI2742
aI2748
aI2756
aI2765
aI2778
aI2792
aI2796
aI2808
aI2838
aI2847
aI2861
aI2885
aI2886
aI2946
aI2992
aI3000
aI3006
aI3007
aI3062
aI3065
aI3087
aI3096
aI3127
aI3143
aI3151
aI3187
aI3196
aI3202
aI3206
aI3233
aI3237
aI3245
aI3249
aI3269
aI3277
aI3279
aI3299
aI3302
aI3314
aI3333
aI3358
aI3368
aI3381
aI3423
aI3448
aI3460
aI3461
aI3553
aI3555
aI3564
aI3578
aI3582
aI3593
aI3595
aI3630
aI3649
aI3687
aI3749
aI3755
aI3777
aI3787
aI3805
aI3806
aI3858
aI3860
aI3867
aI3898
aI3907
aI3932
aI3952
aI3970
aI3975
aI4015
aI4025
aI4126
aI4135
aI4163
aI4165
aI4184
aI4220
aI4239
aI4254
aI4257
aI4307
aI4336
aI4351
aI4353
aI4414
aI4448
aI4459
aI4460
aI4482
aI4488
aI4490
aI4500
aI4530
aI4540
aI4570
aI4582
aI4634
aI4660
aI4677
aI4728
aI4731
aI4733
aI4738
aI4779
aI4792
aI4848
aI4864
aI4879
aI4899
aI4915
aI4916
aI4944
aI4953
aI4955
aI4969
aI4999
aI5012
aI5016
aI5031
aI5037
aI5048
aI5051
aI5078
aI5134
aI5146
aI5185
aI5210
aI5213
aI5249
aI5295
aI5297
aI5301
aI5321
aI5327
aI5343
aI5347
aI5350
aI5361
aI5362
aI5373
asg1
(g5
S'\x01\x00\x00\x00\x00\x00\x00\x00'
p12
tp13
Rp14
(lp15
I31
aI93
aI122
aI168
aI173
aI187
aI242
aI360
aI481
aI483
aI487
aI566
aI598
aI665
aI676
aI714
aI766
aI786
aI803
aI821
aI852
aI865
aI873
aI878
aI955
aI975
aI1124
aI1141
aI1151
aI1219
aI1239
aI1248
aI1270
aI1277
aI1307
aI1388
aI1509
aI1532
aI1534
aI1546
aI1686
aI1754
aI1821
aI1833
aI1843
aI1856
aI1858
aI1952
aI2168
aI2238
aI2378
aI2481
aI2505
aI2605
aI2745
aI2763
aI2815
aI2840
aI2879
aI2942
aI2966
aI2987
aI3145
aI3201
aI3210
aI3225
aI3298
aI3322
aI3389
aI3414
aI3456
aI3637
aI3657
aI3734
aI3744
aI3759
aI3883
aI3902
aI3914
aI3940
aI3974
aI4180
aI4290
aI4344
aI4419
aI4427
aI4450
aI4457
aI4466
aI4523
aI4536
aI4550
aI4556
aI4563
aI4602
aI4623
aI4635
aI4636
aI4644
aI4678
aI4781
aI4794
aI4907
aI4930
aI5002
aI5191
aI5234
aI5250
aI5324
aI5354
asg1
(g5
S'\x02\x00\x00\x00\x00\x00\x00\x00'
p16
tp17
Rp18
(lp19
I18
aI108
aI150
aI154
aI199
aI212
aI264
aI272
aI312
aI359
aI494
aI497
aI501
aI571
aI618
aI629
aI670
aI689
aI776
aI871
aI892
aI920
aI1022
aI1068
aI1101
aI1178
aI1191
aI1203
aI1206
aI1214
aI1235
aI1276
aI1311
aI1348
aI1471
aI1476
aI1485
aI1492
aI1513
aI1527
aI1605
aI1635
aI1647
aI1756
aI1781
aI1812
aI1814
aI1920
aI2019
aI2023
aI2030
aI2085
aI2107
aI2165
aI2193
aI2283
aI2357
aI2364
aI2391
aI2415
aI2467
aI2607
aI2716
aI2767
aI2773
aI2895
aI2933
aI2955
aI2974
aI3030
aI3098
aI3132
aI3168
aI3184
aI3198
aI3285
aI3300
aI3359
aI3361
aI3394
aI3481
aI3506
aI3551
aI3552
aI3558
aI3654
aI3655
aI3656
aI3663
aI3688
aI3696
aI3700
aI3711
aI3729
aI3786
aI3792
aI3820
aI3973
aI4028
aI4065
aI4113
aI4116
aI4117
aI4119
aI4169
aI4181
aI4195
aI4216
aI4316
aI4333
aI4403
aI4406
aI4437
aI4492
aI4557
aI4561
aI4616
aI4618
aI4652
aI4693
aI4761
aI4790
aI4796
aI4843
aI4859
aI4882
aI5028
aI5093
aI5116
aI5132
aI5181
aI5348
aI5353
asg1
(g5
S'\x03\x00\x00\x00\x00\x00\x00\x00'
p20
tp21
Rp22
(lp23
I115
aI382
aI519
aI925
aI1620
aI2046
aI2273
aI2577
aI2714
aI2754
aI3011
aI3131
aI3230
aI4053
aI4200
aI4359
aI4463
aI4872
aI4890
aI5096
aI5182
asg1
(g5
S'\x04\x00\x00\x00\x00\x00\x00\x00'
p24
tp25
Rp26
(lp27
I3
aI85
aI109
aI114
aI118
aI205
aI430
aI593
aI662
aI664
aI901
aI963
aI970
aI994
aI1047
aI1069
aI1202
aI1322
aI1325
aI1364
aI1431
aI1495
aI1613
aI1627
aI1648
aI1665
aI1698
aI1804
aI1900
aI2025
aI2032
aI2082
aI2130
aI2169
aI2242
aI2355
aI2522
aI2674
aI2703
aI2757
aI2790
aI2827
aI2832
aI2937
aI3222
aI3286
aI3459
aI3598
aI3665
aI3670
aI3838
aI3878
aI3906
aI3960
aI3969
aI3979
aI4156
aI4182
aI4320
aI4356
aI4409
aI4475
aI4643
aI4857
aI5225
aI5252
aI5302
aI5341
aI5342
aI5363
asg1
(g5
S'\x05\x00\x00\x00\x00\x00\x00\x00'
p28
tp29
Rp30
(lp31
I73
aI143
aI146
aI313
aI363
aI706
aI805
aI991
aI1116
aI1327
aI1366
aI1375
aI1403
aI1523
aI1815
aI1837
aI1925
aI2095
aI2114
aI2129
aI2167
aI2336
aI2486
aI2555
aI2598
aI2799
aI2813
aI2843
aI2888
aI2969
aI2990
aI2995
aI3001
aI3109
aI3112
aI3199
aI3421
aI3443
aI3501
aI3566
aI3644
aI3891
aI3893
aI4137
aI4188
aI4218
aI4347
aI4508
aI4564
aI4628
aI4755
aI4798
aI4849
aI4852
aI4962
aI5125
aI5175
aI5262
aI5359
asg1
(g5
S'\x06\x00\x00\x00\x00\x00\x00\x00'
p32
tp33
Rp34
(lp35
I71
aI144
aI282
aI295
aI323
aI488
aI573
aI674
aI794
aI885
aI951
aI1046
aI1059
aI1188
aI1365
aI1464
aI1487
aI1521
aI1538
aI1607
aI1872
aI2015
aI2254
aI2314
aI2367
aI2516
aI2529
aI2559
aI2747
aI3528
aI4044
aI4166
aI4274
aI4332
aI4341
aI4376
aI4529
aI4599
aI4662
aI4719
aI4833
aI5013
aI5106
asg1
(g5
S'\x07\x00\x00\x00\x00\x00\x00\x00'
p36
tp37
Rp38
(lp39
I315
aI492
aI563
aI798
aI992
aI1031
aI1070
aI1076
aI1218
aI1314
aI1567
aI1883
aI1957
aI2180
aI2197
aI2324
aI2390
aI2468
aI2662
aI2710
aI2850
aI2899
aI2916
aI3107
aI3121
aI3126
aI3244
aI3417
aI3428
aI3486
aI3641
aI4174
aI4178
aI4272
aI4458
aI4607
aI4642
aI4942
aI5066
aI5102
aI5176
aI5198
aI5274
aI5300
aI5380
aI5382
asg1
(g5
S'\x08\x00\x00\x00\x00\x00\x00\x00'
p40
tp41
Rp42
(lp43
I30
aI54
aI160
aI190
aI246
aI322
aI336
aI385
aI554
aI556
aI622
aI737
aI749
aI761
aI785
aI789
aI801
aI824
aI869
aI905
aI1080
aI1082
aI1211
aI1213
aI1259
aI1300
aI1324
aI1351
aI1354
aI1421
aI1430
aI1483
aI1489
aI1544
aI1651
aI1702
aI1746
aI1842
aI1878
aI1946
aI1950
aI2134
aI2329
aI2333
aI2338
aI2370
aI2470
aI2491
aI2526
aI2536
aI2586
aI2613
aI2647
aI2664
aI2666
aI2676
aI2699
aI2783
aI2797
aI2806
aI2848
aI2873
aI2878
aI2927
aI2965
aI3020
aI3027
aI3043
aI3074
aI3118
aI3171
aI3220
aI3235
aI3257
aI3356
aI3471
aI3538
aI3601
aI3610
aI3631
aI3676
aI3684
aI3690
aI3748
aI3800
aI3824
aI3850
aI3868
aI3915
aI3926
aI3935
aI3977
aI3997
aI4037
aI4050
aI4069
aI4104
aI4468
aI4545
aI4683
aI4689
aI4707
aI4785
aI4827
aI4844
aI5001
aI5045
aI5064
aI5212
aI5223
aI5233
aI5238
aI5283
aI5303
aI5312
asg1
(g5
S'\t\x00\x00\x00\x00\x00\x00\x00'
p44
tp45
Rp46
(lp47
I254
aI261
aI546
aI592
aI651
aI697
aI711
aI721
aI771
aI799
aI819
aI875
aI877
aI886
aI895
aI943
aI1137
aI1148
aI1244
aI1360
aI1371
aI1400
aI1446
aI1514
aI1552
aI1631
aI1717
aI1765
aI1769
aI1796
aI1953
aI1966
aI2056
aI2203
aI2266
aI2291
aI2365
aI2408
aI2475
aI2627
aI2633
aI2730
aI2732
aI2758
aI2963
aI3064
aI3082
aI3130
aI3209
aI3282
aI3289
aI3430
aI3441
aI3532
aI3539
aI3795
aI3956
aI3976
aI3989
aI4039
aI4052
aI4134
aI4150
aI4206
aI4296
aI4354
aI4418
aI4489
aI4581
aI4600
aI4674
aI4822
aI4939
aI5005
aI5027
aI5069
aI5340
asg1
(g5
S'\n\x00\x00\x00\x00\x00\x00\x00'
p48
tp49
Rp50
(lp51
I36
aI57
aI384
aI532
aI701
aI722
aI747
aI839
aI1043
aI1385
aI1429
aI1517
aI1727
aI1758
aI2210
aI2441
aI2450
aI2532
aI2779
aI2911
aI3133
aI3135
aI3483
aI3628
aI3648
aI3849
aI4204
aI4250
aI4271
aI4276
aI4783
aI4922
aI4941
aI4958
aI4960
aI4983
aI5186
aI5230
aI5319
aI5378
aI5384
asg1
(g5
S'\x0b\x00\x00\x00\x00\x00\x00\x00'
p52
tp53
Rp54
(lp55
I33
aI232
aI457
aI617
aI795
aI807
aI911
aI987
aI1038
aI1154
aI1271
aI1292
aI1392
aI1407
aI1499
aI1616
aI1655
aI1938
aI2161
aI2198
aI2236
aI2543
aI2584
aI2615
aI2637
aI3057
aI3138
aI3241
aI3370
aI3629
aI3943
aI3954
aI3986
aI3988
aI4077
aI4097
aI4258
aI4324
aI4453
aI4486
aI4567
aI4695
aI4977
aI5015
aI5025
aI5081
aI5178
aI5370
asg1
(g5
S'\x0c\x00\x00\x00\x00\x00\x00\x00'
p56
tp57
Rp58
(lp59
I65
aI185
aI285
aI420
aI450
aI543
aI741
aI757
aI937
aI1011
aI1071
aI1162
aI1261
aI1343
aI1399
aI1419
aI1566
aI1623
aI1678
aI1739
aI1827
aI1881
aI1962
aI1963
aI2164
aI2233
aI2249
aI2353
aI2455
aI2781
aI2825
aI2940
aI2949
aI2971
aI2973
aI3243
aI3363
aI3462
aI3488
aI3556
aI3577
aI3605
aI3793
aI3842
aI3904
aI4177
aI4214
aI4235
aI4400
aI4449
aI4587
aI4592
aI4603
aI4613
aI4771
aI4819
aI4861
aI5000
aI5099
aI5127
aI5232
aI5293
aI5320
asg1
(g5
S'\r\x00\x00\x00\x00\x00\x00\x00'
p60
tp61
Rp62
(lp63
I196
aI275
aI953
aI1479
aI1757
aI2109
aI2182
aI2196
aI2527
aI2683
aI2786
aI2859
aI2871
aI2883
aI3183
aI3214
aI3412
aI3450
aI3470
aI3509
aI3562
aI3672
aI3738
aI3807
aI3910
aI3919
aI3966
aI4009
aI4143
aI4285
aI4759
aI4911
aI5112
aI5156
aI5379
asg1
(g5
S'\x0e\x00\x00\x00\x00\x00\x00\x00'
p64
tp65
Rp66
(lp67
I335
aI3326
asg1
(g5
S'\x0f\x00\x00\x00\x00\x00\x00\x00'
p68
tp69
Rp70
(lp71
I219
aI392
aI456
aI602
aI768
aI957
aI1062
aI1126
aI1287
aI1382
aI1691
aI1879
aI2308
aI2313
aI2641
aI2707
aI2851
aI3105
aI3378
aI3580
aI4023
aI4233
aI4270
aI4288
aI4421
aI4595
aI4606
aI4641
aI4700
aI4725
aI4990
aI5075
aI5251
aI5277
asg1
(g5
S'\x10\x00\x00\x00\x00\x00\x00\x00'
p72
tp73
Rp74
(lp75
I43
aI70
aI139
aI179
aI204
aI307
aI347
aI431
aI465
aI715
aI738
aI802
aI1001
aI1125
aI1173
aI1243
aI1272
aI1298
aI1313
aI1361
aI1367
aI1368
aI1433
aI1445
aI1508
aI1542
aI1565
aI1612
aI1643
aI1674
aI1768
aI1810
aI1986
aI2005
aI2016
aI2065
aI2150
aI2187
aI2239
aI2260
aI2268
aI2515
aI2655
aI2700
aI2718
aI2788
aI2943
aI2984
aI3002
aI3036
aI3226
aI3318
aI3406
aI3575
aI3772
aI3836
aI3841
aI3920
aI3934
aI4118
aI4273
aI4350
aI4386
aI4469
aI4495
aI4510
aI4535
aI4555
aI4646
aI4704
aI4795
aI4855
aI4991
aI5269
aI5284
aI5375
asg1
(g5
S'\x11\x00\x00\x00\x00\x00\x00\x00'
p76
tp77
Rp78
(lp79
I147
aI560
aI812
aI843
aI941
aI1159
aI1529
aI2279
aI2312
aI2429
aI2473
aI2539
aI2712
aI2741
aI2759
aI2903
aI3115
aI3120
aI3253
aI3258
aI3369
aI3548
aI3784
aI3816
aI3861
aI4149
aI4155
aI4219
aI4275
aI4487
aI4810
aI4820
aI4850
aI4874
aI5113
asg1
(g5
S'\x12\x00\x00\x00\x00\x00\x00\x00'
p80
tp81
Rp82
(lp83
I3666
asg1
(g5
S'\x13\x00\x00\x00\x00\x00\x00\x00'
p84
tp85
Rp86
(lp87
I111
aI133
aI162
aI276
aI308
aI393
aI841
aI863
aI1040
aI1323
aI1719
aI2011
aI2891
aI3019
aI3743
aI4012
aI4029
aI4111
aI4715
asg1
(g5
S'\x14\x00\x00\x00\x00\x00\x00\x00'
p88
tp89
Rp90
(lp91
I1
aI6
aI24
aI26
aI38
aI46
aI51
aI75
aI79
aI113
aI120
aI128
aI171
aI174
aI175
aI183
aI191
aI209
aI217
aI230
aI239
aI273
aI287
aI289
aI297
aI299
aI302
aI305
aI325
aI326
aI327
aI332
aI334
aI339
aI341
aI356
aI357
aI358
aI361
aI367
aI381
aI383
aI401
aI411
aI433
aI447
aI454
aI463
aI476
aI489
aI495
aI505
aI514
aI521
aI528
aI529
aI531
aI550
aI557
aI558
aI559
aI569
aI575
aI579
aI605
aI607
aI610
aI619
aI621
aI626
aI628
aI636
aI642
aI647
aI649
aI685
aI686
aI691
aI696
aI703
aI712
aI720
aI724
aI758
aI760
aI764
aI765
aI772
aI782
aI796
aI800
aI804
aI809
aI810
aI823
aI832
aI833
aI834
aI874
aI881
aI918
aI927
aI936
aI944
aI960
aI965
aI969
aI973
aI978
aI979
aI985
aI988
aI989
aI1015
aI1020
aI1025
aI1035
aI1036
aI1037
aI1054
aI1067
aI1078
aI1095
aI1112
aI1113
aI1147
aI1152
aI1156
aI1172
aI1179
aI1183
aI1247
aI1289
aI1293
aI1296
aI1315
aI1329
aI1332
aI1349
aI1352
aI1357
aI1369
aI1377
aI1383
aI1387
aI1389
aI1401
aI1420
aI1422
aI1443
aI1453
aI1454
aI1455
aI1458
aI1460
aI1461
aI1470
aI1493
aI1497
aI1498
aI1504
aI1511
aI1525
aI1526
aI1533
aI1536
aI1562
aI1563
aI1572
aI1579
aI1582
aI1593
aI1595
aI1596
aI1598
aI1624
aI1630
aI1637
aI1641
aI1662
aI1664
aI1667
aI1669
aI1675
aI1676
aI1684
aI1707
aI1711
aI1723
aI1732
aI1743
aI1748
aI1759
aI1766
aI1782
aI1802
aI1809
aI1816
aI1820
aI1825
aI1829
aI1851
aI1873
aI1875
aI1886
aI1892
aI1896
aI1902
aI1904
aI1909
aI1918
aI1922
aI1933
aI1955
aI1959
aI1972
aI1980
aI1982
aI1997
aI2020
aI2031
aI2034
aI2048
aI2064
aI2073
aI2078
aI2087
aI2088
aI2092
aI2097
aI2104
aI2121
aI2135
aI2149
aI2166
aI2202
aI2208
aI2216
aI2217
aI2221
aI2225
aI2244
aI2259
aI2294
aI2318
aI2319
aI2320
aI2327
aI2341
aI2354
aI2366
aI2379
aI2386
aI2399
aI2421
aI2424
aI2428
aI2434
aI2436
aI2438
aI2443
aI2448
aI2456
aI2460
aI2465
aI2474
aI2487
aI2495
aI2513
aI2524
aI2528
aI2531
aI2573
aI2587
aI2600
aI2601
aI2619
aI2623
aI2629
aI2630
aI2631
aI2632
aI2635
aI2638
aI2643
aI2644
aI2652
aI2659
aI2684
aI2688
aI2696
aI2701
aI2702
aI2705
aI2708
aI2709
aI2713
aI2723
aI2739
aI2752
aI2761
aI2766
aI2769
aI2776
aI2784
aI2793
aI2794
aI2798
aI2819
aI2824
aI2842
aI2852
aI2856
aI2870
aI2897
aI2905
aI2908
aI2914
aI2929
aI2939
aI2944
aI2953
aI2958
aI2975
aI2989
aI2993
aI2994
aI2996
aI3008
aI3009
aI3018
aI3032
aI3035
aI3039
aI3048
aI3055
aI3059
aI3061
aI3071
aI3073
aI3080
aI3083
aI3089
aI3093
aI3114
aI3128
aI3150
aI3164
aI3177
aI3186
aI3193
aI3200
aI3208
aI3211
aI3215
aI3218
aI3229
aI3242
aI3283
aI3294
aI3301
aI3307
aI3309
aI3312
aI3317
aI3324
aI3332
aI3337
aI3339
aI3355
aI3371
aI3373
aI3380
aI3384
aI3387
aI3405
aI3432
aI3433
aI3434
aI3451
aI3458
aI3463
aI3466
aI3469
aI3478
aI3485
aI3492
aI3504
aI3505
aI3511
aI3512
aI3531
aI3534
aI3537
aI3544
aI3547
aI3554
aI3567
aI3587
aI3588
aI3594
aI3603
aI3604
aI3606
aI3608
aI3619
aI3622
aI3623
aI3626
aI3635
aI3658
aI3662
aI3664
aI3673
aI3675
aI3679
aI3680
aI3681
aI3683
aI3695
aI3702
aI3703
aI3709
aI3714
aI3718
aI3731
aI3733
aI3737
aI3751
aI3757
aI3758
aI3764
aI3769
aI3796
aI3810
aI3811
aI3812
aI3815
aI3821
aI3839
aI3844
aI3855
aI3866
aI3869
aI3881
aI3901
aI3908
aI3911
aI3927
aI3939
aI3942
aI3944
aI3948
aI3957
aI3959
aI3965
aI3978
aI3993
aI4000
aI4001
aI4008
aI4016
aI4017
aI4038
aI4045
aI4046
aI4058
aI4059
aI4060
aI4061
aI4063
aI4070
aI4090
aI4095
aI4115
aI4124
aI4142
aI4147
aI4151
aI4164
aI4170
aI4176
aI4183
aI4192
aI4194
aI4199
aI4208
aI4209
aI4224
aI4227
aI4229
aI4237
aI4240
aI4242
aI4248
aI4249
aI4264
aI4278
aI4282
aI4284
aI4286
aI4308
aI4317
aI4318
aI4321
aI4325
aI4367
aI4370
aI4373
aI4378
aI4381
aI4385
aI4396
aI4402
aI4407
aI4408
aI4410
aI4420
aI4428
aI4436
aI4439
aI4456
aI4462
aI4464
aI4474
aI4477
aI4483
aI4491
aI4497
aI4505
aI4527
aI4538
aI4548
aI4571
aI4572
aI4577
aI4585
aI4601
aI4625
aI4627
aI4630
aI4647
aI4651
aI4657
aI4672
aI4675
aI4692
aI4716
aI4717
aI4718
aI4721
aI4727
aI4729
aI4750
aI4756
aI4757
aI4762
aI4770
aI4773
aI4777
aI4789
aI4799
aI4802
aI4804
aI4807
aI4826
aI4836
aI4837
aI4841
aI4842
aI4854
aI4865
aI4869
aI4875
aI4900
aI4908
aI4909
aI4913
aI4921
aI4926
aI4933
aI4947
aI4951
aI4959
aI4968
aI4971
aI4972
aI4973
aI4985
aI4987
aI4996
aI4998
aI5014
aI5020
aI5021
aI5038
aI5040
aI5049
aI5063
aI5067
aI5074
aI5077
aI5103
aI5107
aI5110
aI5111
aI5120
aI5128
aI5138
aI5139
aI5141
aI5148
aI5150
aI5151
aI5153
aI5163
aI5166
aI5208
aI5216
aI5221
aI5228
aI5235
aI5272
aI5275
aI5288
aI5294
aI5309
aI5318
aI5325
aI5339
aI5349
aI5352
aI5356
aI5366
aI5369
aI5385
asg1
(g5
S'\x15\x00\x00\x00\x00\x00\x00\x00'
p92
tp93
Rp94
(lp95
I311
aI419
aI553
aI661
aI730
aI1359
aI1570
aI1644
aI1846
aI3144
aI3399
aI3563
aI3767
aI3830
aI4526
aI5254
asg1
(g5
S'\x16\x00\x00\x00\x00\x00\x00\x00'
p96
tp97
Rp98
(lp99
I348
asg1
(g5
S'\x17\x00\x00\x00\x00\x00\x00\x00'
p100
tp101
Rp102
(lp103
I15
aI193
aI459
aI551
aI820
aI976
aI1085
aI1666
aI1703
aI1818
aI1975
aI1992
aI2002
aI2199
aI2240
aI2375
aI2585
aI2872
aI2978
aI3766
aI3776
aI3826
aI3834
aI3900
aI4051
aI4154
aI4245
aI4267
aI4319
aI4352
aI4543
aI4744
aI4780
aI4800
aI4887
aI4974
aI5313
asg1
(g5
S'\x18\x00\x00\x00\x00\x00\x00\x00'
p104
tp105
Rp106
(lp107
I41
aI194
aI301
aI589
aI599
aI677
aI913
aI914
aI977
aI1160
aI1295
aI1463
aI1677
aI1712
aI1718
aI1908
aI2108
aI2127
aI2480
aI2651
aI2876
aI3033
aI3054
aI3097
aI3178
aI3188
aI3292
aI3350
aI3420
aI3442
aI3487
aI3569
aI3572
aI3581
aI3607
aI3723
aI3760
aI3808
aI3872
aI3905
aI4086
aI4280
aI4304
aI4327
aI4478
aI4499
aI4559
aI4656
aI4676
aI4688
aI5243
aI5388
asg1
(g5
S'\x19\x00\x00\x00\x00\x00\x00\x00'
p108
tp109
Rp110
(lp111
I4246
asg1
(g5
S'\x1a\x00\x00\x00\x00\x00\x00\x00'
p112
tp113
Rp114
(lp115
I5344
asg1
(g5
S'\x1b\x00\x00\x00\x00\x00\x00\x00'
p116
tp117
Rp118
(lp119
I96
aI349
aI680
aI1585
aI2125
aI2311
aI2471
aI2854
aI3377
aI3653
aI4179
aI4187
aI4283
aI5220
aI5355
asg1
(g5
S'\x1c\x00\x00\x00\x00\x00\x00\x00'
p120
tp121
Rp122
(lp123
I1316
aI1615
aI1690
aI2176
aI3004
aI4133
aI4965
asg1
(g5
S'\x1d\x00\x00\x00\x00\x00\x00\x00'
p124
tp125
Rp126
(lp127
I2488
aI2925
aI2959
aI3012
aI3894
asg1
(g5
S'\x1e\x00\x00\x00\x00\x00\x00\x00'
p128
tp129
Rp130
(lp131
I218
aI253
aI534
aI827
aI1050
aI1167
aI1840
aI1999
aI2191
aI2576
aI2653
aI2810
aI3616
aI3790
aI3817
aI3885
aI4043
aI4121
aI4298
aI4389
aI4632
aI4732
aI4978
aI5044
aI5068
aI5079
aI5118
aI5266
asg1
(g5
S'\x1f\x00\x00\x00\x00\x00\x00\x00'
p132
tp133
Rp134
(lp135
I490
aI964
aI1004
aI1016
aI1181
aI1195
aI1225
aI1811
aI2145
aI2212
aI2425
aI2822
aI4518
aI4619
aI4764
aI5197
asg1
(g5
S' \x00\x00\x00\x00\x00\x00\x00'
p136
tp137
Rp138
(lp139
I5008
asg1
(g5
S'!\x00\x00\x00\x00\x00\x00\x00'
p140
tp141
Rp142
(lp143
I23
aI207
aI251
aI296
aI390
aI444
aI458
aI587
aI731
aI767
aI880
aI1024
aI1142
aI1290
aI1291
aI1425
aI1501
aI1583
aI1770
aI1985
aI2043
aI2102
aI2204
aI2330
aI2420
aI3219
aI3467
aI3646
aI3845
aI3846
aI3913
aI4003
aI4022
aI4128
aI4252
aI4399
aI4558
aI4661
aI5029
aI5158
aI5271
asg1
(g5
S'"\x00\x00\x00\x00\x00\x00\x00'
p144
tp145
Rp146
(lp147
I4858
asg1
(g5
S'#\x00\x00\x00\x00\x00\x00\x00'
p148
tp149
Rp150
(lp151
I87
aI996
aI1066
aI1898
aI2537
aI4309
aI5364
aI5381
asg1
(g5
S'$\x00\x00\x00\x00\x00\x00\x00'
p152
tp153
Rp154
(lp155
I4553
asg1
(g5
S'%\x00\x00\x00\x00\x00\x00\x00'
p156
tp157
Rp158
(lp159
I58
aI169
aI291
aI344
aI475
aI1180
aI1231
aI1304
aI1452
aI1633
aI1762
aI1834
aI1890
aI1897
aI2081
aI2101
aI2155
aI2205
aI2500
aI2671
aI2677
aI2862
aI2892
aI2932
aI2934
aI3106
aI3205
aI3288
aI3306
aI3447
aI3498
aI3529
aI3716
aI3771
aI3818
aI3832
aI3876
aI3884
aI3967
aI4018
aI4078
aI4136
aI4198
aI4277
aI4417
aI4812
aI4825
aI4989
aI5006
aI5041
aI5065
aI5144
aI5177
aI5207
aI5222
aI5296
aI5315
asg1
(g5
S'&\x00\x00\x00\x00\x00\x00\x00'
p160
tp161
Rp162
(lp163
I612
aI639
aI650
aI763
aI777
aI934
aI1034
aI1193
aI1715
aI2265
aI2517
aI2743
aI2998
aI3216
aI3925
aI4106
aI4768
aI4903
aI5328
asg1
(g5
S"'\x00\x00\x00\x00\x00\x00\x00"
p164
tp165
Rp166
(lp167
I29
aI126
aI189
aI330
aI752
aI775
aI1610
aI1790
aI1945
aI2050
aI2346
aI2380
aI2753
aI2845
aI4064
aI4446
aI4710
aI4754
asg1
(g5
S'(\x00\x00\x00\x00\x00\x00\x00'
p168
tp169
Rp170
(lp171
I40
aI542
aI1979
aI2520
aI4560
asg1
(g5
S')\x00\x00\x00\x00\x00\x00\x00'
p172
tp173
Rp174
(lp175
I365
asg1
(g5
S'*\x00\x00\x00\x00\x00\x00\x00'
p176
tp177
Rp178
(lp179
I10
aI22
aI192
aI198
aI202
aI221
aI274
aI333
aI338
aI394
aI451
aI473
aI583
aI591
aI633
aI854
aI857
aI890
aI893
aI907
aI962
aI1077
aI1094
aI1117
aI1246
aI1297
aI1321
aI1363
aI1437
aI1462
aI1550
aI1601
aI1619
aI1695
aI1726
aI1742
aI1788
aI1859
aI1891
aI1916
aI2094
aI2158
aI2162
aI2207
aI2211
aI2222
aI2246
aI2274
aI2293
aI2413
aI2453
aI2509
aI2519
aI2564
aI2580
aI2658
aI2704
aI2727
aI2868
aI2928
aI2947
aI3094
aI3163
aI3190
aI3207
aI3357
aI3407
aI3429
aI3437
aI3453
aI3454
aI3497
aI3543
aI3708
aI3739
aI3765
aI3775
aI3825
aI3874
aI3882
aI4157
aI4306
aI4313
aI4339
aI4346
aI4377
aI4394
aI4454
aI4461
aI4481
aI4493
aI4706
aI4881
aI4937
aI4997
aI5007
aI5023
aI5053
aI5098
aI5133
aI5180
aI5214
aI5281
aI5372
aI5374
aI5390
asg1
(g5
S'+\x00\x00\x00\x00\x00\x00\x00'
p180
tp181
Rp182
(lp183
I84
aI163
aI262
aI263
aI340
aI370
aI378
aI397
aI503
aI552
aI709
aI842
aI844
aI848
aI945
aI1018
aI1177
aI1192
aI1274
aI1286
aI1333
aI1412
aI1477
aI1503
aI1524
aI1590
aI1693
aI1913
aI1930
aI1965
aI2303
aI2497
aI2744
aI2764
aI2770
aI2771
aI2875
aI2920
aI2931
aI3005
aI3046
aI3075
aI3185
aI3252
aI3570
aI3686
aI4162
aI4253
aI4338
aI4392
aI4638
aI4702
aI4806
aI4832
aI4866
aI5172
asg1
(g5
S',\x00\x00\x00\x00\x00\x00\x00'
p184
tp185
Rp186
(lp187
I77
aI437
aI512
aI606
aI856
aI932
aI983
aI1074
aI1108
aI1240
aI1646
aI1654
aI1803
aI1977
aI2038
aI2051
aI2252
aI2289
aI2440
aI2570
aI2738
aI2795
aI3119
aI3176
aI3293
aI3295
aI3334
aI3372
aI3400
aI3624
aI3788
aI3828
aI3870
aI3923
aI3999
aI4048
aI4238
aI4362
aI4485
aI4591
aI4598
aI4631
aI5203
aI5273
aI5335
asg1
(g5
S'-\x00\x00\x00\x00\x00\x00\x00'
p188
tp189
Rp190
(lp191
I328
aI990
aI1543
aI1636
aI1990
aI2163
aI2396
aI2502
aI2697
aI2762
aI3195
aI3260
aI4244
aI4443
aI4531
aI5095
aI5334
aI5336
aI5377
asg1
(g5
S'.\x00\x00\x00\x00\x00\x00\x00'
p192
tp193
Rp194
(lp195
I225
aI850
aI1041
aI1609
aI2194
aI2578
aI3408
aI3972
aI4014
aI4191
aI4724
aI4745
aI4813
aI4932
aI5304
asg1
(g5
S'/\x00\x00\x00\x00\x00\x00\x00'
p196
tp197
Rp198
(lp199
I723
aI1312
aI1699
aI1709
aI2179
aI2181
aI2223
aI2398
aI2493
aI2685
aI2816
aI2890
aI3017
aI3204
aI3224
aI3725
aI3768
aI3916
aI4055
aI4305
aI4329
aI4476
aI4503
aI4521
aI4522
aI4554
asg1
(g5
S'0\x00\x00\x00\x00\x00\x00\x00'
p200
tp201
Rp202
(lp203
I753
aI887
aI1285
aI1484
aI2309
aI2444
aI2640
aI3909
aI4289
aI5245
aI5367
asg1
(g5
S'1\x00\x00\x00\x00\x00\x00\x00'
p204
tp205
Rp206
(lp207
I1586
asg1
(g5
S'2\x00\x00\x00\x00\x00\x00\x00'
p208
tp209
Rp210
(lp211
I386
aI435
aI601
aI904
aI1245
aI1465
aI1954
aI2362
aI2466
aI2768
aI3041
aI3052
aI3078
aI3236
aI3642
aI3864
aI3953
aI4056
aI4100
aI4664
aI4808
aI4924
aI4934
asg1
(g5
S'3\x00\x00\x00\x00\x00\x00\x00'
p212
tp213
Rp214
(lp215
I3557
asg1
(g5
S'4\x00\x00\x00\x00\x00\x00\x00'
p216
tp217
Rp218
(lp219
I547
aI590
aI790
aI1306
aI1618
aI1745
aI1793
aI1935
aI2245
aI2458
aI2521
aI3599
aI3794
aI3862
aI4345
aI4519
aI4816
aI5060
aI5193
aI5205
aI5351
asg1
(g5
S'5\x00\x00\x00\x00\x00\x00\x00'
p220
tp221
Rp222
(lp223
I61
aI138
aI250
aI337
aI346
aI627
aI825
aI829
aI952
aI1013
aI1086
aI1122
aI1374
aI1554
aI1838
aI1863
aI1936
aI1987
aI2143
aI2439
aI2503
aI3275
aI3323
aI3329
aI3376
aI3495
aI3722
aI3745
aI4171
aI4186
aI4621
aI4871
aI4975
aI4979
aI5287
aI5358
asg1
(g5
S'6\x00\x00\x00\x00\x00\x00\x00'
p224
tp225
Rp226
(lp227
I1017
asg1
(g5
S'7\x00\x00\x00\x00\x00\x00\x00'
p228
tp229
Rp230
(lp231
I2340
asg1
(g5
S'8\x00\x00\x00\x00\x00\x00\x00'
p232
tp233
Rp234
(lp235
I170
aI211
aI513
aI523
aI700
aI773
aI840
aI1130
aI1379
aI1787
aI1984
aI2063
aI2105
aI2218
aI2271
aI2620
aI2624
aI2729
aI2839
aI2948
aI3267
aI3549
aI4011
aI4108
aI4269
aI4605
aI4690
aI5094
asg1
(g5
S'9\x00\x00\x00\x00\x00\x00\x00'
p236
tp237
Rp238
(lp239
I3520
asg1
(g5
S':\x00\x00\x00\x00\x00\x00\x00'
p240
tp241
Rp242
(lp243
I145
aI201
aI371
aI379
aI539
aI860
aI906
aI942
aI1098
aI1136
aI1254
aI1824
aI1853
aI1912
aI1964
aI2226
aI2287
aI2359
aI2566
aI2594
aI2648
aI2772
aI3263
aI3573
aI4610
aI4668
aI4791
aI4878
aI5009
aI5018
aI5248
aI5256
aI5305
asg1
(g5
S';\x00\x00\x00\x00\x00\x00\x00'
p244
tp245
Rp246
(lp247
I7
aI11
aI17
aI35
aI68
aI78
aI82
aI88
aI99
aI110
aI148
aI155
aI176
aI177
aI203
aI210
aI228
aI229
aI238
aI260
aI293
aI298
aI310
aI317
aI321
aI350
aI375
aI376
aI398
aI408
aI414
aI416
aI438
aI445
aI507
aI524
aI538
aI544
aI564
aI567
aI568
aI584
aI596
aI597
aI603
aI620
aI652
aI656
aI657
aI667
aI668
aI672
aI679
aI708
aI718
aI726
aI727
aI743
aI788
aI792
aI815
aI826
aI836
aI838
aI868
aI870
aI876
aI883
aI889
aI924
aI930
aI948
aI967
aI999
aI1019
aI1056
aI1072
aI1087
aI1121
aI1155
aI1171
aI1182
aI1184
aI1209
aI1215
aI1216
aI1217
aI1237
aI1253
aI1257
aI1258
aI1294
aI1317
aI1318
aI1319
aI1330
aI1335
aI1346
aI1384
aI1386
aI1398
aI1408
aI1411
aI1426
aI1481
aI1518
aI1541
aI1548
aI1584
aI1589
aI1602
aI1659
aI1673
aI1679
aI1701
aI1716
aI1722
aI1729
aI1731
aI1734
aI1751
aI1755
aI1764
aI1785
aI1801
aI1817
aI1849
aI1854
aI1860
aI1866
aI1880
aI1888
aI1927
aI1931
aI1932
aI1940
aI1941
aI1951
aI1974
aI1976
aI1978
aI1988
aI2007
aI2017
aI2028
aI2055
aI2058
aI2061
aI2070
aI2100
aI2111
aI2112
aI2115
aI2136
aI2141
aI2154
aI2171
aI2175
aI2183
aI2189
aI2206
aI2316
aI2334
aI2368
aI2376
aI2393
aI2395
aI2417
aI2446
aI2462
aI2494
aI2501
aI2518
aI2590
aI2608
aI2610
aI2625
aI2628
aI2634
aI2669
aI2678
aI2691
aI2698
aI2724
aI2734
aI2735
aI2736
aI2740
aI2800
aI2831
aI2834
aI2837
aI2889
aI2906
aI2913
aI2935
aI2956
aI2967
aI2981
aI2982
aI2983
aI2988
aI3014
aI3023
aI3029
aI3051
aI3058
aI3079
aI3099
aI3103
aI3113
aI3137
aI3147
aI3154
aI3166
aI3175
aI3203
aI3213
aI3223
aI3232
aI3268
aI3272
aI3273
aI3278
aI3280
aI3327
aI3336
aI3340
aI3343
aI3345
aI3353
aI3388
aI3391
aI3410
aI3425
aI3438
aI3440
aI3477
aI3489
aI3526
aI3561
aI3576
aI3579
aI3597
aI3602
aI3650
aI3659
aI3682
aI3691
aI3692
aI3699
aI3710
aI3713
aI3719
aI3726
aI3736
aI3740
aI3741
aI3742
aI3783
aI3801
aI3809
aI3813
aI3827
aI3831
aI3843
aI3852
aI3896
aI3897
aI3922
aI3924
aI3951
aI3971
aI3981
aI3987
aI3990
aI3995
aI4026
aI4041
aI4047
aI4054
aI4068
aI4071
aI4076
aI4098
aI4122
aI4140
aI4172
aI4175
aI4185
aI4197
aI4203
aI4207
aI4222
aI4223
aI4231
aI4256
aI4259
aI4291
aI4295
aI4297
aI4303
aI4311
aI4326
aI4360
aI4371
aI4374
aI4380
aI4382
aI4388
aI4391
aI4416
aI4425
aI4426
aI4447
aI4484
aI4517
aI4525
aI4528
aI4532
aI4539
aI4552
aI4565
aI4575
aI4576
aI4597
aI4622
aI4633
aI4637
aI4649
aI4669
aI4671
aI4684
aI4687
aI4701
aI4736
aI4742
aI4758
aI4775
aI4782
aI4811
aI4821
aI4828
aI4860
aI4867
aI4868
aI4877
aI4884
aI4906
aI4910
aI4914
aI4920
aI4940
aI4945
aI4948
aI4992
aI4995
aI5017
aI5034
aI5047
aI5070
aI5086
aI5123
aI5155
aI5168
aI5190
aI5202
aI5226
aI5253
aI5260
aI5264
aI5280
aI5285
aI5299
aI5331
aI5333
aI5346
aI5391
asg1
(g5
S'<\x00\x00\x00\x00\x00\x00\x00'
p248
tp249
Rp250
(lp251
I25
aI149
aI304
aI446
aI624
aI984
aI1230
aI1841
aI3086
aI3212
aI3313
aI3590
aI4422
aI4430
aI4573
aI4749
asg1
(g5
S'=\x00\x00\x00\x00\x00\x00\x00'
p252
tp253
Rp254
(lp255
I3169
asg1
(g5
S'>\x00\x00\x00\x00\x00\x00\x00'
p256
tp257
Rp258
(lp259
I684
aI748
aI774
aI1268
aI1424
aI1469
aI1779
aI1995
aI2026
aI2304
aI2347
aI2514
aI2936
aI2950
aI3231
aI3917
aI4158
aI4379
aI4395
aI4445
aI4648
aI4653
aI4892
asg1
(g5
S'?\x00\x00\x00\x00\x00\x00\x00'
p260
tp261
Rp262
(lp263
I4
aI13
aI19
aI66
aI134
aI137
aI159
aI318
aI396
aI429
aI464
aI498
aI588
aI625
aI710
aI716
aI732
aI759
aI862
aI897
aI982
aI986
aI1029
aI1045
aI1104
aI1115
aI1123
aI1224
aI1250
aI1444
aI1557
aI1578
aI1592
aI1638
aI1660
aI1680
aI1687
aI1784
aI1807
aI1848
aI1871
aI1998
aI2022
aI2103
aI2140
aI2224
aI2229
aI2281
aI2302
aI2321
aI2414
aI2592
aI2722
aI2818
aI2829
aI2835
aI2896
aI2962
aI2991
aI3060
aI3141
aI3159
aI3181
aI3385
aI3524
aI3613
aI3652
aI3698
aI3871
aI3888
aI3938
aI3955
aI4093
aI4096
aI4101
aI4109
aI4130
aI4145
aI4287
aI4357
aI4387
aI4390
aI4444
aI4534
aI4685
aI4739
aI4778
aI4784
aI4897
aI5036
aI5058
aI5090
aI5101
aI5126
aI5131
aI5136
aI5179
asg1
(g5
S'@\x00\x00\x00\x00\x00\x00\x00'
p264
tp265
Rp266
(lp267
I98
aI407
aI613
aI698
aI830
aI898
aI1436
aI1855
aI1905
aI2018
aI2789
aI3025
aI3077
aI3227
aI3325
aI3540
aI3887
aI4024
aI4504
aI4904
aI4952
aI5026
aI5061
asg1
(g5
S'A\x00\x00\x00\x00\x00\x00\x00'
p268
tp269
Rp270
(lp271
I237
asg1
(g5
S'B\x00\x00\x00\x00\x00\x00\x00'
p272
tp273
Rp274
(lp275
I405
aI413
aI428
aI440
aI468
aI1088
aI1103
aI1131
aI1138
aI1175
aI1198
aI1201
aI1262
aI1305
aI1372
aI1395
aI1396
aI1448
aI1672
aI1689
aI2044
aI2110
aI2200
aI2213
aI2426
aI2977
aI3037
aI3259
aI3331
aI3346
aI3409
aI3480
aI3559
aI3560
aI3950
aI3992
aI4300
aI4375
aI4666
aI4741
aI4760
aI5011
aI5100
asg1
(g5
S'C\x00\x00\x00\x00\x00\x00\x00'
p276
tp277
Rp278
(lp279
I2
aI195
aI236
aI309
aI417
aI526
aI931
aI1060
aI1263
aI1337
aI1373
aI1457
aI1530
aI1559
aI1628
aI1653
aI1668
aI1961
aI1973
aI2047
aI2080
aI2089
aI2174
aI2261
aI2339
aI2349
aI2372
aI2412
aI2476
aI2482
aI2489
aI2506
aI2525
aI2544
aI2549
aI2660
aI2663
aI2717
aI2719
aI2881
aI2960
aI2986
aI3047
aI3081
aI3088
aI3095
aI3158
aI3192
aI3217
aI3240
aI3321
aI3457
aI3514
aI3704
aI3782
aI3799
aI4002
aI4040
aI4075
aI4173
aI4232
aI4263
aI4301
aI4366
aI4506
aI4511
aI4542
aI4596
aI4659
aI4673
aI4682
aI4793
aI4905
aI5043
aI5055
aI5194
asg1
(g5
S'D\x00\x00\x00\x00\x00\x00\x00'
p280
tp281
Rp282
(lp283
I12
aI32
aI72
aI74
aI89
aI116
aI206
aI215
aI331
aI355
aI380
aI400
aI541
aI884
aI896
aI935
aI954
aI1064
aI1100
aI1109
aI1135
aI1150
aI1232
aI1279
aI1284
aI1376
aI1410
aI1413
aI1434
aI1621
aI1710
aI1744
aI1778
aI1852
aI1901
aI1924
aI1942
aI1989
aI2003
aI2068
aI2084
aI2131
aI2148
aI2269
aI2351
aI2374
aI2457
aI2472
aI2484
aI2650
aI2814
aI2823
aI2894
aI2922
aI3042
aI3146
aI3281
aI3349
aI3390
aI3424
aI3431
aI3542
aI3822
aI3877
aI3958
aI3985
aI4099
aI4110
aI4127
aI4205
aI4212
aI4314
aI4335
aI4340
aI4372
aI4404
aI4584
aI4645
aI4726
aI4752
aI4801
aI4805
aI4902
aI4943
aI4966
aI4976
aI5114
aI5161
aI5204
aI5270
aI5357
asg1
(g5
S'E\x00\x00\x00\x00\x00\x00\x00'
p284
tp285
Rp286
(lp287
I117
aI255
aI288
aI452
aI520
aI781
aI837
aI849
aI1402
aI1438
aI1449
aI1491
aI1512
aI1740
aI1747
aI1887
aI2013
aI2146
aI2188
aI2427
aI2588
aI2654
aI2726
aI2821
aI3010
aI3045
aI3069
aI3104
aI3125
aI3341
aI3352
aI3464
aI3614
aI3621
aI3643
aI3647
aI3735
aI3746
aI3761
aI3773
aI3859
aI3933
aI3994
aI4107
aI4196
aI4260
aI4496
aI4650
aI4655
aI4665
aI4734
aI4748
aI4797
aI4891
aI5183
asg1
(g5
S'F\x00\x00\x00\x00\x00\x00\x00'
p288
tp289
Rp290
(lp291
I39
aI48
aI90
aI100
aI104
aI136
aI172
aI184
aI233
aI234
aI244
aI249
aI316
aI364
aI369
aI406
aI418
aI460
aI480
aI493
aI510
aI518
aI530
aI536
aI561
aI565
aI615
aI637
aI638
aI663
aI671
aI673
aI693
aI695
aI704
aI779
aI784
aI831
aI894
aI910
aI928
aI950
aI1023
aI1028
aI1044
aI1057
aI1157
aI1161
aI1166
aI1199
aI1283
aI1334
aI1339
aI1340
aI1409
aI1435
aI1507
aI1545
aI1573
aI1603
aI1617
aI1632
aI1650
aI1661
aI1670
aI1694
aI1697
aI1728
aI1737
aI1750
aI1791
aI1792
aI1795
aI1844
aI1845
aI1857
aI1862
aI1882
aI1884
aI1947
aI1969
aI1993
aI2039
aI2045
aI2053
aI2096
aI2098
aI2113
aI2123
aI2128
aI2147
aI2177
aI2220
aI2228
aI2251
aI2288
aI2297
aI2298
aI2343
aI2348
aI2363
aI2371
aI2385
aI2401
aI2403
aI2410
aI2423
aI2435
aI2437
aI2461
aI2511
aI2530
aI2550
aI2558
aI2565
aI2571
aI2575
aI2582
aI2602
aI2604
aI2611
aI2661
aI2667
aI2670
aI2679
aI2711
aI2749
aI2774
aI2801
aI2811
aI2828
aI2844
aI2865
aI2880
aI2882
aI2898
aI2915
aI2957
aI2961
aI3021
aI3022
aI3040
aI3067
aI3090
aI3091
aI3111
aI3165
aI3194
aI3221
aI3247
aI3255
aI3276
aI3297
aI3364
aI3379
aI3386
aI3393
aI3402
aI3411
aI3416
aI3422
aI3439
aI3449
aI3468
aI3472
aI3476
aI3515
aI3584
aI3615
aI3617
aI3669
aI3724
aI3727
aI3747
aI3754
aI3762
aI3781
aI3847
aI3851
aI3875
aI3962
aI3968
aI3998
aI4006
aI4035
aI4067
aI4073
aI4081
aI4088
aI4105
aI4123
aI4125
aI4161
aI4190
aI4215
aI4217
aI4221
aI4243
aI4265
aI4268
aI4279
aI4292
aI4330
aI4342
aI4355
aI4384
aI4401
aI4412
aI4415
aI4429
aI4498
aI4512
aI4516
aI4547
aI4549
aI4551
aI4569
aI4590
aI4640
aI4654
aI4691
aI4709
aI4712
aI4714
aI4723
aI4834
aI4847
aI4856
aI4885
aI4898
aI4954
aI4964
aI5003
aI5052
aI5057
aI5108
aI5117
aI5122
aI5140
aI5160
aI5257
aI5259
aI5267
aI5365
asg1
(g5
S'G\x00\x00\x00\x00\x00\x00\x00'
p292
tp293
Rp294
(lp295
I4946
asg1
(g5
S'H\x00\x00\x00\x00\x00\x00\x00'
p296
tp297
Rp298
(lp299
I91
aI515
aI604
aI666
aI1342
aI2485
aI2572
aI3266
aI3452
aI3721
aI3890
asg1
(g5
S'I\x00\x00\x00\x00\x00\x00\x00'
p300
tp301
Rp302
(lp303
I9
aI37
aI165
aI269
aI324
aI388
aI410
aI787
aI835
aI858
aI919
aI922
aI1083
aI1120
aI1127
aI1238
aI1278
aI1288
aI1580
aI1591
aI1721
aI1776
aI1806
aI1944
aI2033
aI2077
aI2219
aI2241
aI2257
aI2383
aI2388
aI2422
aI2442
aI2540
aI2541
aI2563
aI2690
aI2858
aI2866
aI2904
aI3248
aI3287
aI3499
aI3677
aI3707
aI3780
aI3912
aI3947
aI4072
aI4234
aI4574
aI4579
aI4763
aI5165
aI5195
aI5211
aI5332
asg1
(g5
S'J\x00\x00\x00\x00\x00\x00\x00'
p304
tp305
Rp306
(lp307
I14
aI97
aI130
aI582
aI707
aI938
aI1084
aI1092
aI1097
aI1189
aI1242
aI1415
aI1733
aI1826
aI1911
aI2317
aI2356
aI2547
aI2626
aI2849
aI2918
aI3152
aI3250
aI3525
aI3618
aI3804
aI3983
aI4094
aI4152
aI4349
aI4451
aI4583
aI4624
aI5035
aI5152
aI5157
aI5239
aI5286
asg1
(g5
S'K\x00\x00\x00\x00\x00\x00\x00'
p308
tp309
Rp310
(lp311
I178
aI222
aI245
aI259
aI535
aI586
aI623
aI635
aI640
aI675
aI694
aI702
aI735
aI783
aI851
aI961
aI1079
aI1132
aI1158
aI1280
aI1390
aI1394
aI1450
aI1468
aI1528
aI1663
aI1692
aI1823
aI1836
aI1910
aI1970
aI2010
aI2185
aI2394
aI2553
aI2657
aI3038
aI3238
aI3271
aI3413
aI3568
aI3638
aI3789
aI3833
aI3964
aI3991
aI4030
aI4042
aI4302
aI4323
aI4441
aI4614
aI4917
aI4970
aI5135
aI5330
asg1
(g5
S'L\x00\x00\x00\x00\x00\x00\x00'
p312
tp313
Rp314
(lp315
I59
aI491
aI755
aI816
aI872
aI879
aI899
aI1053
aI1058
aI1096
aI1537
aI1575
aI1753
aI2323
aI2335
aI2483
aI2534
aI2731
aI2746
aI2855
aI3015
aI3026
aI3536
aI3571
aI3774
aI3803
aI3903
aI4032
aI4148
aI4293
aI4433
aI4888
aI4949
aI4963
aI4988
aI5109
aI5129
aI5246
asg1
(g5
S'M\x00\x00\x00\x00\x00\x00\x00'
p316
tp317
Rp318
(lp319
I2841
asg1
(g5
S'N\x00\x00\x00\x00\x00\x00\x00'
p320
tp321
Rp322
(lp323
I1553
asg1
(g5
S'O\x00\x00\x00\x00\x00\x00\x00'
p324
tp325
Rp326
(lp327
I28
aI44
aI45
aI47
aI67
aI129
aI140
aI161
aI300
aI366
aI377
aI387
aI395
aI415
aI443
aI474
aI485
aI486
aI522
aI548
aI611
aI669
aI725
aI729
aI736
aI744
aI806
aI855
aI867
aI916
aI1006
aI1032
aI1229
aI1234
aI1267
aI1355
aI1356
aI1393
aI1467
aI1472
aI1482
aI1494
aI1516
aI1556
aI1561
aI1581
aI1611
aI1671
aI1683
aI1706
aI1799
aI1865
aI1907
aI1996
aI2059
aI2272
aI2389
aI2392
aI2418
aI2452
aI2459
aI2533
aI2548
aI2560
aI2616
aI2617
aI2689
aI2725
aI2737
aI2782
aI2787
aI2836
aI2846
aI2912
aI2919
aI2924
aI2938
aI2999
aI3044
aI3122
aI3134
aI3140
aI3157
aI3172
aI3173
aI3179
aI3256
aI3274
aI3303
aI3342
aI3392
aI3395
aI3398
aI3494
aI3533
aI3574
aI3639
aI3651
aI3661
aI3730
aI3753
aI3763
aI3857
aI3937
aI4034
aI4139
aI4211
aI4261
aI4423
aI4580
aI4679
aI4803
aI4838
aI4880
aI4950
aI4993
aI4994
aI5032
aI5046
aI5050
aI5084
aI5119
aI5130
aI5167
aI5215
aI5263
aI5282
asg1
(g5
S'P\x00\x00\x00\x00\x00\x00\x00'
p328
tp329
Rp330
(lp331
I182
aI281
aI449
aI484
aI578
aI949
aI1061
aI1119
aI1169
aI1310
aI1397
aI1488
aI1520
aI1597
aI1708
aI1830
aI1847
aI1868
aI1885
aI1921
aI2052
aI2057
aI2069
aI2079
aI2409
aI2433
aI2454
aI2552
aI2618
aI2907
aI2926
aI3024
aI3070
aI3149
aI3239
aI3291
aI3367
aI3446
aI3500
aI3685
aI3697
aI3715
aI3791
aI3930
aI3946
aI4103
aI4193
aI4435
aI4589
aI4698
aI4743
aI4769
aI5170
aI5307
aI5337
asg1
(g5
S'Q\x00\x00\x00\x00\x00\x00\x00'
p332
tp333
Rp334
(lp335
I141
aI354
aI389
aI462
aI469
aI470
aI511
aI631
aI956
aI1012
aI1128
aI1331
aI1539
aI1540
aI1555
aI1577
aI1604
aI1730
aI1749
aI1783
aI2008
aI2186
aI2278
aI2350
aI2449
aI2562
aI2672
aI2686
aI2877
aI2976
aI3124
aI3246
aI3338
aI3344
aI3374
aI3401
aI3475
aI3585
aI3720
aI3929
aI4021
aI4431
aI4502
aI4604
aI4611
aI4720
aI4772
aI4809
aI4873
aI4886
aI4889
aI5073
aI5240
aI5265
aI5289
asg1
(g5
S'R\x00\x00\x00\x00\x00\x00\x00'
p336
tp337
Rp338
(lp339
I2791
asg1
(g5
S'S\x00\x00\x00\x00\x00\x00\x00'
p340
tp341
Rp342
(lp343
I157
aI226
aI267
aI270
aI422
aI424
aI614
aI719
aI739
aI793
aI912
aI1003
aI1091
aI1228
aI1299
aI1510
aI1531
aI1574
aI1594
aI1634
aI1735
aI1736
aI1797
aI1850
aI1874
aI1923
aI2009
aI2029
aI2086
aI2120
aI2133
aI2157
aI2173
aI2267
aI2639
aI2665
aI2864
aI2909
aI3102
aI3170
aI3197
aI3270
aI3304
aI3328
aI3517
aI3530
aI3609
aI3627
aI3949
aI4074
aI4112
aI4120
aI4251
aI4315
aI4343
aI4398
aI4442
aI4494
aI4541
aI4746
aI4788
aI4823
aI4846
aI5115
aI5199
aI5218
aI5231
aI5236
aI5276
asg1
(g5
S'T\x00\x00\x00\x00\x00\x00\x00'
p344
tp345
Rp346
(lp347
I257
aI471
aI506
aI517
aI822
aI900
aI1005
aI1118
aI1153
aI1500
aI1569
aI1608
aI1640
aI1752
aI1794
aI1813
aI1876
aI2124
aI2478
aI2561
aI2968
aI3284
aI3366
aI3694
aI4033
aI4294
aI4322
aI4348
aI4363
aI4747
aI4824
aI4883
aI5076
aI5143
aI5159
aI5345
asg1
(g5
S'U\x00\x00\x00\x00\x00\x00\x00'
p348
tp349
Rp350
(lp351
I56
aI80
aI124
aI180
aI247
aI248
aI368
aI434
aI472
aI482
aI500
aI632
aI634
aI733
aI740
aI769
aI808
aI813
aI847
aI923
aI958
aI971
aI1027
aI1033
aI1049
aI1073
aI1090
aI1102
aI1105
aI1145
aI1200
aI1220
aI1281
aI1309
aI1358
aI1558
aI1571
aI1576
aI1599
aI1626
aI1642
aI1645
aI1861
aI1914
aI1919
aI1949
aI1956
aI2006
aI2144
aI2152
aI2209
aI2237
aI2250
aI2258
aI2262
aI2264
aI2285
aI2296
aI2328
aI2344
aI2381
aI2419
aI2523
aI2546
aI2596
aI2614
aI2621
aI2656
aI2681
aI2695
aI2751
aI2785
aI2826
aI2921
aI2964
aI2985
aI3016
aI3031
aI3034
aI3101
aI3311
aI3319
aI3360
aI3362
aI3484
aI3491
aI3516
aI3523
aI3565
aI3596
aI3660
aI3671
aI3854
aI3895
aI4138
aI4146
aI4159
aI4334
aI4397
aI4452
aI4455
aI4480
aI4507
aI4520
aI4524
aI4626
aI4629
aI4680
aI4697
aI4774
aI4787
aI4835
aI4853
aI4927
aI4928
aI5024
aI5033
aI5042
aI5105
aI5164
aI5184
aI5200
aI5219
aI5247
aI5258
aI5329
asg1
(g5
S'V\x00\x00\x00\x00\x00\x00\x00'
p352
tp353
Rp354
(lp355
I1338
aI1606
aI1622
aI1682
aI2160
aI2172
aI2337
aI2568
aI2675
aI2945
aI2980
aI3003
aI3072
aI3139
aI3396
aI3404
aI3591
aI3674
aI3899
aI3921
aI3928
aI4019
aI4082
aI4241
aI4247
aI4735
aI4818
aI5147
aI5386
asg1
(g5
S'W\x00\x00\x00\x00\x00\x00\x00'
p356
tp357
Rp358
(lp359
I8
aI16
aI20
aI52
aI55
aI60
aI62
aI92
aI94
aI107
aI119
aI121
aI125
aI131
aI142
aI166
aI188
aI197
aI213
aI216
aI223
aI227
aI243
aI252
aI258
aI265
aI279
aI280
aI283
aI292
aI303
aI329
aI345
aI362
aI404
aI409
aI412
aI425
aI426
aI432
aI439
aI442
aI448
aI453
aI455
aI466
aI479
aI502
aI504
aI509
aI516
aI525
aI527
aI537
aI540
aI555
aI562
aI572
aI574
aI576
aI577
aI581
aI594
aI608
aI643
aI645
aI653
aI659
aI683
aI687
aI690
aI692
aI713
aI717
aI728
aI742
aI746
aI770
aI780
aI845
aI846
aI859
aI861
aI891
aI908
aI915
aI917
aI926
aI929
aI939
aI940
aI959
aI968
aI974
aI981
aI995
aI997
aI1007
aI1014
aI1021
aI1026
aI1039
aI1042
aI1093
aI1106
aI1111
aI1139
aI1140
aI1143
aI1149
aI1163
aI1165
aI1185
aI1186
aI1187
aI1190
aI1196
aI1205
aI1221
aI1222
aI1251
aI1252
aI1255
aI1256
aI1260
aI1264
aI1265
aI1301
aI1302
aI1341
aI1344
aI1350
aI1353
aI1381
aI1414
aI1418
aI1423
aI1440
aI1442
aI1447
aI1459
aI1474
aI1475
aI1480
aI1486
aI1502
aI1505
aI1515
aI1519
aI1535
aI1549
aI1551
aI1560
aI1629
aI1656
aI1658
aI1681
aI1704
aI1724
aI1741
aI1761
aI1763
aI1767
aI1772
aI1774
aI1775
aI1786
aI1789
aI1800
aI1822
aI1828
aI1835
aI1839
aI1864
aI1867
aI1869
aI1893
aI1894
aI1899
aI1906
aI1917
aI1939
aI1960
aI2004
aI2012
aI2024
aI2035
aI2036
aI2042
aI2062
aI2066
aI2075
aI2076
aI2090
aI2091
aI2099
aI2106
aI2118
aI2119
aI2132
aI2137
aI2139
aI2142
aI2156
aI2178
aI2184
aI2190
aI2201
aI2227
aI2230
aI2231
aI2247
aI2255
aI2263
aI2270
aI2275
aI2276
aI2280
aI2282
aI2286
aI2300
aI2301
aI2305
aI2310
aI2315
aI2322
aI2332
aI2345
aI2352
aI2358
aI2361
aI2373
aI2387
aI2397
aI2404
aI2405
aI2407
aI2432
aI2447
aI2464
aI2469
aI2479
aI2507
aI2512
aI2542
aI2554
aI2567
aI2569
aI2574
aI2579
aI2593
aI2595
aI2597
aI2599
aI2609
aI2612
aI2642
aI2649
aI2668
aI2673
aI2680
aI2687
aI2692
aI2694
aI2715
aI2721
aI2733
aI2750
aI2775
aI2777
aI2802
aI2803
aI2805
aI2807
aI2812
aI2817
aI2820
aI2833
aI2863
aI2867
aI2900
aI2902
aI2910
aI2917
aI2930
aI2941
aI2951
aI2952
aI3013
aI3028
aI3053
aI3056
aI3085
aI3100
aI3108
aI3110
aI3116
aI3123
aI3136
aI3142
aI3153
aI3156
aI3160
aI3161
aI3162
aI3174
aI3180
aI3182
aI3189
aI3234
aI3251
aI3265
aI3290
aI3296
aI3305
aI3310
aI3315
aI3316
aI3320
aI3330
aI3335
aI3347
aI3348
aI3375
aI3382
aI3383
aI3403
aI3415
aI3419
aI3426
aI3435
aI3436
aI3445
aI3455
aI3465
aI3473
aI3474
aI3479
aI3482
aI3490
aI3496
aI3502
aI3518
aI3527
aI3546
aI3550
aI3586
aI3589
aI3600
aI3612
aI3632
aI3633
aI3636
aI3640
aI3667
aI3678
aI3701
aI3705
aI3706
aI3712
aI3728
aI3732
aI3778
aI3785
aI3797
aI3798
aI3823
aI3829
aI3835
aI3848
aI3853
aI3856
aI3863
aI3865
aI3873
aI3886
aI3892
aI3931
aI3945
aI3961
aI3963
aI3982
aI3984
aI3996
aI4004
aI4007
aI4010
aI4020
aI4027
aI4031
aI4049
aI4057
aI4062
aI4066
aI4079
aI4080
aI4085
aI4091
aI4114
aI4129
aI4131
aI4141
aI4153
aI4160
aI4167
aI4189
aI4226
aI4228
aI4230
aI4281
aI4312
aI4328
aI4361
aI4364
aI4365
aI4368
aI4369
aI4405
aI4411
aI4424
aI4438
aI4440
aI4465
aI4467
aI4470
aI4472
aI4501
aI4514
aI4515
aI4533
aI4537
aI4544
aI4546
aI4562
aI4566
aI4568
aI4578
aI4588
aI4593
aI4594
aI4608
aI4609
aI4612
aI4617
aI4667
aI4670
aI4681
aI4696
aI4711
aI4713
aI4722
aI4730
aI4737
aI4740
aI4751
aI4766
aI4767
aI4786
aI4814
aI4815
aI4817
aI4830
aI4831
aI4839
aI4845
aI4851
aI4862
aI4893
aI4895
aI4896
aI4912
aI4918
aI4923
aI4925
aI4929
aI4931
aI4936
aI4938
aI4957
aI4980
aI4982
aI4986
aI5010
aI5059
aI5062
aI5071
aI5080
aI5082
aI5085
aI5089
aI5091
aI5104
aI5121
aI5124
aI5142
aI5149
aI5162
aI5169
aI5174
aI5201
aI5209
aI5217
aI5224
aI5227
aI5237
aI5241
aI5242
aI5244
aI5261
aI5268
aI5278
aI5279
aI5291
aI5292
aI5308
aI5311
aI5316
aI5322
aI5323
aI5338
aI5368
aI5371
aI5383
aI5387
aI5389
asg1
(g5
S'X\x00\x00\x00\x00\x00\x00\x00'
p360
tp361
Rp362
(lp363
I235
aI351
aI399
aI461
aI499
aI654
aI762
aI903
aI1089
aI1194
aI1249
aI1303
aI1345
aI1547
aI1780
aI1948
aI1981
aI2001
aI2067
aI2235
aI2248
aI2492
aI2606
aI3063
aI3068
aI3167
aI3228
aI3444
aI3493
aI3503
aI3592
aI3689
aI3837
aI3879
aI3880
aI4236
aI4337
aI4658
aI4699
aI4776
aI5092
aI5196
aI5298
asg1
(g5
S'Y\x00\x00\x00\x00\x00\x00\x00'
p364
tp365
Rp366
(lp367
I50
aI103
aI135
aI214
aI314
aI319
aI353
aI372
aI496
aI609
aI644
aI655
aI797
aI966
aI1174
aI1197
aI1227
aI1241
aI1328
aI1362
aI1404
aI1587
aI1614
aI1657
aI1688
aI1700
aI1808
aI2071
aI2093
aI2284
aI2295
aI2307
aI2477
aI2499
aI2510
aI2538
aI2581
aI2760
aI2804
aI2853
aI2874
aI2887
aI2954
aI2972
aI2997
aI3049
aI3050
aI3254
aI3397
aI3522
aI3625
aI3645
aI3693
aI3756
aI4084
aI4132
aI4202
aI4225
aI4310
aI4473
aI4686
aI4765
aI4961
aI4967
aI5072
aI5087
aI5137
aI5171
aI5173
aI5317
asg1
(g5
S'Z\x00\x00\x00\x00\x00\x00\x00'
p368
tp369
Rp370
(lp371
I63
aI105
aI208
aI278
aI290
aI427
aI441
aI467
aI477
aI946
aI1009
aI1048
aI1075
aI1081
aI1110
aI1146
aI1282
aI1405
aI1432
aI1588
aI1685
aI1819
aI1895
aI1903
aI1991
aI2153
aI2159
aI2234
aI2636
aI2682
aI2884
aI2901
aI3076
aI3084
aI3129
aI3264
aI3620
aI3634
aI3668
aI3717
aI3750
aI3770
aI4005
aI4144
aI4213
aI4432
aI4703
aI4753
aI4863
aI4901
aI5039
aI5056
aI5145
asg1
(g5
S'[\x00\x00\x00\x00\x00\x00\x00'
p372
tp373
Rp374
(lp375
I268
asg1
(g5
S'\\\x00\x00\x00\x00\x00\x00\x00'
p376
tp377
Rp378
(lp379
I49
aI76
aI81
aI200
aI231
aI580
aI681
aI745
aI853
aI864
aI1002
aI1133
aI1168
aI1416
aI2021
aI2860
aI2970
aI3354
aI3427
aI3510
aI3840
aI4036
aI4089
aI4102
aI4168
aI4262
aI4509
aI4620
aI4694
aI4876
aI4981
aI5189
asg1
(g5
S']\x00\x00\x00\x00\x00\x00\x00'
p380
tp381
Rp382
(lp383
I403
aI751
aI756
aI972
aI1391
aI1600
aI1714
aI2126
aI2342
aI2406
aI2545
aI3148
aI3507
aI3513
aI3545
aI3814
aI3941
aI4984
aI5188
aI5314
asg1
(g5
S'^\x00\x00\x00\x00\x00\x00\x00'
p384
tp385
Rp386
(lp387
I34
aI86
aI342
aI343
aI391
aI549
aI616
aI660
aI1223
aI1273
aI1326
aI1564
aI1639
aI1725
aI1943
aI1983
aI2049
aI2306
aI2755
aI3535
aI3779
aI3889
aI4013
aI4083
aI4210
aI4299
aI4383
aI4663
aI4840
aI4870
aI4919
aI4956
aI5019
aI5229
aI5360
asg1
(g5
S'_\x00\x00\x00\x00\x00\x00\x00'
p388
tp389
Rp390
(lp391
I3308
asg1
(g5
S'`\x00\x00\x00\x00\x00\x00\x00'
p392
tp393
Rp394
(lp395
I4829
asg1
(g5
S'a\x00\x00\x00\x00\x00\x00\x00'
p396
tp397
Rp398
(lp399
I21
aI42
aI152
aI153
aI240
aI241
aI256
aI266
aI352
aI402
aI423
aI595
aI630
aI641
aI688
aI699
aI818
aI902
aI933
aI1052
aI1055
aI1170
aI1236
aI1266
aI1269
aI1320
aI1456
aI1466
aI1478
aI1652
aI1696
aI1773
aI1870
aI1934
aI1967
aI2014
aI2027
aI2083
aI2116
aI2215
aI2232
aI2290
aI2292
aI2326
aI2384
aI2430
aI2431
aI2451
aI2463
aI2591
aI2622
aI2645
aI2728
aI2780
aI2830
aI2857
aI2869
aI2893
aI2923
aI3066
aI3092
aI3117
aI3155
aI3191
aI3351
aI3365
aI3508
aI3521
aI3541
aI3611
aI3819
aI3918
aI3936
aI4087
aI4092
aI4201
aI4255
aI4358
aI4393
aI4413
aI4471
aI4479
aI4513
aI4586
aI4615
aI4639
aI4708
aI4894
aI4935
aI5004
aI5022
aI5030
aI5054
aI5088
aI5097
aI5154
aI5192
aI5206
aI5255
aI5306
aI5310
aI5326
aI5376
asg1
(g5
S'b\x00\x00\x00\x00\x00\x00\x00'
p400
tp401
Rp402
(lp403
I69
aI112
aI271
aI277
aI508
aI570
aI648
aI778
aI791
aI866
aI947
aI1129
aI1207
aI1212
aI1832
aI1889
aI1926
aI2000
aI2195
aI2277
aI2556
aI2979
aI3261
aI3262
aI3418
aI3519
aI3583
aI3752
aI3802
aI3980
aI4266
aI4331
aI4434
aI4705
aI5083
aI5187
aI5290
asg1
(g5
S'c\x00\x00\x00\x00\x00\x00\x00'
p404
tp405
Rp406
(lp407
I2809
as.